; Function Attrs: mustprogress nofree norecurse nosync nounwind willreturn memory(none) uwtable
define dso_local { ptr, i64 } @_ZNK4llvm14MemoryOpRemark10remarkNameENS0_10RemarkKindE(ptr nocapture nonnull readnone align 8 %0, i32 noundef %1) unnamed_addr #0 align 2 {
switch.lookup:
  %2 = sext i32 %1 to i64
  %switch.gep = getelementptr inbounds [4 x i64], ptr @switch.table._ZNK4llvm14MemoryOpRemark10remarkNameENS0_10RemarkKindE, i64 0, i64 %2
  %switch.load = load i64, ptr %switch.gep, align 8
  %3 = sext i32 %1 to i64
  %switch.gep1 = getelementptr inbounds [4 x ptr], ptr @switch.table._ZNK4llvm14MemoryOpRemark10remarkNameENS0_10RemarkKindE.5, i64 0, i64 %3
  %switch.load2 = load ptr, ptr %switch.gep1, align 8
  %.fca.0.insert = insertvalue { ptr, i64 } poison, ptr %switch.load2, 0
  %.fca.1.insert = insertvalue { ptr, i64 } %.fca.0.insert, i64 %switch.load, 1
  ret { ptr, i64 } %.fca.1.insert
}